; Function Attrs: mustprogress nofree norecurse nosync nounwind willreturn memory(read, inaccessiblemem: none) uwtable
define hidden noundef i32 @_ZN11realclosure7manager16num_coefficientsERKNS_3numE(ptr noundef nonnull readonly align 8 captures(none) dereferenceable(8) %0, ptr noundef nonnull readonly align 8 captures(none) dereferenceable(8) %1) local_unnamed_addr #9 align 2 {
  %3 = load ptr, ptr %1, align 8, !tbaa !84
  %4 = getelementptr inbounds nuw i8, ptr %3, i64 4
  %5 = load i8, ptr %4, align 4, !tbaa !61, !range !105, !noundef !106
  %6 = trunc nuw i8 %5 to i1
  br i1 %6, label %_ZN11realclosure7manager3imp16num_coefficientsERKNS_3numE.exit, label %_ZN11realclosure7manager3imp12is_algebraicERKNS_3numE.exit.i

_ZN11realclosure7manager3imp12is_algebraicERKNS_3numE.exit.i: ; preds = %2
  %7 = getelementptr inbounds nuw i8, ptr %3, i64 88
  %8 = load ptr, ptr %7, align 8, !tbaa !108
  %9 = getelementptr inbounds nuw i8, ptr %8, i64 4
  %10 = load i32, ptr %9, align 4
  %11 = and i32 %10, 3
  %12 = icmp eq i32 %11, 2
  br i1 %12, label %13, label %_ZN11realclosure7manager3imp16num_coefficientsERKNS_3numE.exit

13:                                               ; preds = %_ZN11realclosure7manager3imp12is_algebraicERKNS_3numE.exit.i
  %14 = getelementptr inbounds nuw i8, ptr %8, i64 72
  %15 = load ptr, ptr %14, align 8, !tbaa !143
  %16 = icmp eq ptr %15, null
  br i1 %16, label %_ZN11realclosure7manager3imp16num_coefficientsERKNS_3numE.exit, label %17

17:                                               ; preds = %13
  %18 = getelementptr inbounds i8, ptr %15, i64 -8
  %19 = load i64, ptr %18, align 8, !tbaa !144
  %20 = trunc i64 %19 to i32
  br label %_ZN11realclosure7manager3imp16num_coefficientsERKNS_3numE.exit

_ZN11realclosure7manager3imp16num_coefficientsERKNS_3numE.exit: ; preds = %2, %_ZN11realclosure7manager3imp12is_algebraicERKNS_3numE.exit.i, %13, %17
  %.0.i = phi i32 [ 0, %_ZN11realclosure7manager3imp12is_algebraicERKNS_3numE.exit.i ], [ %20, %17 ], [ 0, %13 ], [ 0, %2 ]
  ret i32 %.0.i
}